target datalayout = "e-m:e-p270:32:32-p271:32:32-p272:64:64-i64:64-i128:128-f80:128-n8:16:32:64-S128"
target triple = "x86_64-pc-linux-gnu"

%struct.OutputPluginCallbacks = type { ptr, ptr, ptr, ptr, ptr, ptr, ptr, ptr, ptr, ptr, ptr, ptr, ptr, ptr, ptr, ptr, ptr, ptr, ptr, ptr, ptr }
%struct.LogicalDecodingContext = type { ptr, ptr, ptr, ptr, ptr, i8, %struct.OutputPluginCallbacks, %struct.OutputPluginOptions, ptr, ptr, ptr, ptr, ptr, ptr, ptr, i8, i8, i8, i8, i8, i64, i32, i8, i8 }
%struct.OutputPluginOptions = type { i32, i8 }

; Function Attrs: nounwind uwtable
define internal void @pgoutput_prepare_txn(ptr noundef %0, ptr noundef %1, i64 noundef %2) #0 {
  %4 = alloca ptr, align 8
  %5 = alloca ptr, align 8
  %6 = alloca i64, align 8
  store ptr %0, ptr %4, align 8
  store ptr %1, ptr %5, align 8
  store i64 %2, ptr %6, align 8
  %7 = load ptr, ptr %4, align 8
  call void @OutputPluginUpdateProgress(ptr noundef %7, i1 noundef zeroext false)
  %8 = load ptr, ptr %4, align 8
  call void @OutputPluginPrepareWrite(ptr noundef %8, i1 noundef zeroext true)
  %9 = load ptr, ptr %4, align 8
  %10 = getelementptr inbounds nuw %struct.LogicalDecodingContext, ptr %9, i32 0, i32 12
  %11 = load ptr, ptr %10, align 8
  %12 = load ptr, ptr %5, align 8
  %13 = load i64, ptr %6, align 8
  call void @logicalrep_write_prepare(ptr noundef %11, ptr noundef %12, i64 noundef %13)
  %14 = load ptr, ptr %4, align 8
  call void @OutputPluginWrite(ptr noundef %14, i1 noundef zeroext true)
  ret void
}